target datalayout = "e-m:e-p270:32:32-p271:32:32-p272:64:64-i64:64-i128:128-f80:128-n8:16:32:64-S128"
target triple = "x86_64-pc-linux-gnu"

%"class.std::__cxx11::basic_string" = type { %"struct.std::__cxx11::basic_string<char>::_Alloc_hider", i64, %union.anon }
%"struct.std::__cxx11::basic_string<char>::_Alloc_hider" = type { ptr }
%union.anon = type { i64, [8 x i8] }
%"class.std::allocator" = type { i8 }
%"class.std::initializer_list.62" = type { ptr, i64 }

@_ZN10open_spiel6spades12_GLOBAL__N_19kSuitCharE = internal constant [5 x i8] c"CDHS\00", align 1
@_ZN10open_spiel6spades12_GLOBAL__N_19kRankCharE = internal constant [14 x i8] c"23456789TJQKA\00", align 1

; Function Attrs: mustprogress nounwind uwtable
define internal noundef i32 @_ZN10open_spiel6spades12_GLOBAL__N_18CardRankEi(i32 noundef %0) #5 {
  %2 = alloca i32, align 4
  store i32 %0, ptr %2, align 4
  %3 = load i32, ptr %2, align 4
  %4 = srem i32 %3, 13
  ret i32 %4
}

; Function Attrs: mustprogress nounwind uwtable
define internal noundef i32 @_ZN10open_spiel6spades12_GLOBAL__N_18CardSuitEi(i32 noundef %0) #5 {
  %2 = alloca i32, align 4
  store i32 %0, ptr %2, align 4
  %3 = load i32, ptr %2, align 4
  %4 = sdiv i32 %3, 13
  ret i32 %4
}

; Function Attrs: mustprogress uwtable
define internal void @_ZN10open_spiel6spades12_GLOBAL__N_110CardStringB5cxx11Ei(ptr dead_on_unwind noalias writable sret(%"class.std::__cxx11::basic_string") align 8 %0, i32 noundef %1) #4 personality ptr @__gxx_personality_v0 {
  %3 = alloca ptr, align 8
  %4 = alloca i32, align 4
  %5 = alloca %"class.std::initializer_list.62", align 8
  %6 = alloca [2 x i8], align 1
  %7 = alloca %"class.std::allocator", align 1
  %8 = alloca ptr, align 8
  %9 = alloca i32, align 4
  store ptr %0, ptr %3, align 8
  store i32 %1, ptr %4, align 4
  %10 = load i32, ptr %4, align 4
  %11 = call noundef i32 @_ZN10open_spiel6spades12_GLOBAL__N_18CardSuitEi(i32 noundef %10)
  %12 = sext i32 %11 to i64
  %13 = getelementptr inbounds [5 x i8], ptr @_ZN10open_spiel6spades12_GLOBAL__N_19kSuitCharE, i64 0, i64 %12
  %14 = load i8, ptr %13, align 1
  store i8 %14, ptr %6, align 1
  %15 = getelementptr inbounds i8, ptr %6, i64 1
  %16 = load i32, ptr %4, align 4
  %17 = call noundef i32 @_ZN10open_spiel6spades12_GLOBAL__N_18CardRankEi(i32 noundef %16)
  %18 = sext i32 %17 to i64
  %19 = getelementptr inbounds [14 x i8], ptr @_ZN10open_spiel6spades12_GLOBAL__N_19kRankCharE, i64 0, i64 %18
  %20 = load i8, ptr %19, align 1
  store i8 %20, ptr %15, align 1
  %21 = getelementptr inbounds nuw %"class.std::initializer_list.62", ptr %5, i32 0, i32 0
  store ptr %6, ptr %21, align 8
  %22 = getelementptr inbounds nuw %"class.std::initializer_list.62", ptr %5, i32 0, i32 1
  store i64 2, ptr %22, align 8
  call void @_ZNSaIcEC1Ev(ptr noundef nonnull align 1 dereferenceable(1) %7) #3
  %23 = getelementptr inbounds nuw { ptr, i64 }, ptr %5, i32 0, i32 0
  %24 = load ptr, ptr %23, align 8
  %25 = getelementptr inbounds nuw { ptr, i64 }, ptr %5, i32 0, i32 1
  %26 = load i64, ptr %25, align 8
  invoke void @_ZNSt7__cxx1112basic_stringIcSt11char_traitsIcESaIcEEC1ESt16initializer_listIcERKS3_(ptr noundef nonnull align 8 dereferenceable(32) %0, ptr %24, i64 %26, ptr noundef nonnull align 1 dereferenceable(1) %7)
          to label %27 unwind label %28

27:                                               ; preds = %2
  call void @_ZNSaIcED1Ev(ptr noundef nonnull align 1 dereferenceable(1) %7) #3
  ret void

28:                                               ; preds = %2
  %29 = landingpad { ptr, i32 }
          cleanup
  %30 = extractvalue { ptr, i32 } %29, 0
  store ptr %30, ptr %8, align 8
  %31 = extractvalue { ptr, i32 } %29, 1
  store i32 %31, ptr %9, align 4
  call void @_ZNSaIcED1Ev(ptr noundef nonnull align 1 dereferenceable(1) %7) #3
  br label %32

32:                                               ; preds = %28
  %33 = load ptr, ptr %8, align 8
  %34 = load i32, ptr %9, align 4
  %35 = insertvalue { ptr, i32 } poison, ptr %33, 0
  %36 = insertvalue { ptr, i32 } %35, i32 %34, 1
  resume { ptr, i32 } %36
}

; Function Attrs: mustprogress uwtable
define void @_ZNK10open_spiel6spades11SpadesState14ActionToStringB5cxx11Eil(ptr dead_on_unwind noalias writable sret(%"class.std::__cxx11::basic_string") align 8 %0, ptr noundef nonnull align 8 dereferenceable(897) %1, i32 noundef %2, i64 noundef %3) unnamed_addr #4 align 2 {
  %5 = alloca ptr, align 8
  %6 = alloca ptr, align 8
  %7 = alloca i32, align 4
  %8 = alloca i64, align 8
  store ptr %0, ptr %5, align 8
  store ptr %1, ptr %6, align 8
  store i32 %2, ptr %7, align 4
  store i64 %3, ptr %8, align 8
  %9 = load i64, ptr %8, align 8
  %10 = icmp slt i64 %9, 52
  br i1 %10, label %11, label %14

11:                                               ; preds = %4
  %12 = load i64, ptr %8, align 8
  %13 = trunc i64 %12 to i32
  call void @_ZN10open_spiel6spades12_GLOBAL__N_110CardStringB5cxx11Ei(ptr dead_on_unwind writable sret(%"class.std::__cxx11::basic_string") align 8 %0, i32 noundef %13)
  br label %18

14:                                               ; preds = %4
  %15 = load i64, ptr %8, align 8
  %16 = sub nsw i64 %15, 52
  %17 = trunc i64 %16 to i32
  call void @_ZN10open_spiel6spades12_GLOBAL__N_19BidStringB5cxx11Ei(ptr dead_on_unwind writable sret(%"class.std::__cxx11::basic_string") align 8 %0, i32 noundef %17)
  br label %18

18:                                               ; preds = %14, %11
  ret void
}