; Function Attrs: mustprogress uwtable
define void @_ZNK10open_spiel6spades11SpadesState14ActionToStringB5cxx11Eil(ptr dead_on_unwind noalias writable sret(%"class.std::__cxx11::basic_string") align 8 %0, ptr nocapture nonnull readnone align 8 %1, i32 %2, i64 noundef %3) unnamed_addr #3 align 2 personality ptr @__gxx_personality_v0 {
  %5 = alloca [2 x i8], align 1
  %6 = alloca %"class.std::allocator", align 1
  %7 = icmp slt i64 %3, 52
  %8 = trunc i64 %3 to i32
  br i1 %7, label %9, label %21

9:                                                ; preds = %4
  call void @llvm.lifetime.start.p0(i64 2, ptr nonnull %5)
  call void @llvm.lifetime.start.p0(i64 1, ptr nonnull %6)
  %10 = sdiv i32 %8, 13
  %11 = sext i32 %10 to i64
  %12 = getelementptr inbounds [5 x i8], ptr @_ZN10open_spiel6spades12_GLOBAL__N_19kSuitCharE, i64 0, i64 %11
  %13 = load i8, ptr %12, align 1, !noalias !7
  store i8 %13, ptr %5, align 1, !noalias !7
  %14 = getelementptr inbounds i8, ptr %5, i64 1
  %15 = srem i32 %8, 13
  %16 = sext i32 %15 to i64
  %17 = getelementptr inbounds [14 x i8], ptr @_ZN10open_spiel6spades12_GLOBAL__N_19kRankCharE, i64 0, i64 %16
  %18 = load i8, ptr %17, align 1, !noalias !7
  store i8 %18, ptr %14, align 1, !noalias !7
  call void @_ZNSaIcEC1Ev(ptr noundef nonnull align 1 dereferenceable(1) %6) #25, !noalias !7
  invoke void @_ZNSt7__cxx1112basic_stringIcSt11char_traitsIcESaIcEEC1ESt16initializer_listIcERKS3_(ptr noundef nonnull align 8 dereferenceable(32) %0, ptr nonnull %5, i64 2, ptr noundef nonnull align 1 dereferenceable(1) %6)
          to label %_ZN10open_spiel6spades12_GLOBAL__N_110CardStringB5cxx11Ei.exit unwind label %19

19:                                               ; preds = %9
  %20 = landingpad { ptr, i32 }
          cleanup
  call void @_ZNSaIcED1Ev(ptr noundef nonnull align 1 dereferenceable(1) %6) #25
  resume { ptr, i32 } %20

_ZN10open_spiel6spades12_GLOBAL__N_110CardStringB5cxx11Ei.exit: ; preds = %9
  call void @_ZNSaIcED1Ev(ptr noundef nonnull align 1 dereferenceable(1) %6) #25
  call void @llvm.lifetime.end.p0(i64 2, ptr nonnull %5)
  call void @llvm.lifetime.end.p0(i64 1, ptr nonnull %6)
  br label %23

21:                                               ; preds = %4
  %22 = add i32 %8, -52
  tail call fastcc void @_ZN10open_spiel6spades12_GLOBAL__N_19BidStringB5cxx11Ei(ptr dead_on_unwind noalias writable align 8 %0, i32 noundef %22)
  br label %23

23:                                               ; preds = %21, %_ZN10open_spiel6spades12_GLOBAL__N_110CardStringB5cxx11Ei.exit
  ret void
}